; Function Attrs: mustprogress null_pointer_is_valid sspstrong uwtable
define void @_ZN9ProtoTree9expandAllEv(ptr noundef align 8 dereferenceable_or_null(208) %0) #0 align 2 {
  %2 = load i32, ptr @num_tree_types, align 4
  %3 = icmp sgt i32 %2, 0
  br i1 %3, label %.lr.ph, label %._crit_edge

._crit_edge:                                      ; preds = %.lr.ph, %1
  tail call void @_ZN9QTreeView9expandAllEv(ptr noundef align 8 dereferenceable_or_null(40) %0)
  %4 = getelementptr inbounds nuw i8, ptr %0, i64 152
  %5 = load i32, ptr %4, align 8
  %6 = icmp eq i32 %5, 0
  br i1 %6, label %7, label %_ZN9ProtoTree18updateContentWidthEv.exit

7:                                                ; preds = %._crit_edge
  %8 = tail call noundef i32 @_ZN7QObject10startTimerEiN2Qt9TimerTypeE(ptr noundef align 8 dereferenceable_or_null(208) %0, i32 noundef 0, i32 noundef 1)
  store i32 %8, ptr %4, align 8
  br label %_ZN9ProtoTree18updateContentWidthEv.exit

_ZN9ProtoTree18updateContentWidthEv.exit:         ; preds = %._crit_edge, %7
  ret void

.lr.ph:                                           ; preds = %1, %.lr.ph
  %.03 = phi i32 [ %9, %.lr.ph ], [ 0, %1 ]
  tail call void @tree_expanded_set(i32 noundef %.03, i1 noundef zeroext true)
  %9 = add nuw nsw i32 %.03, 1
  %10 = load i32, ptr @num_tree_types, align 4
  %11 = icmp slt i32 %9, %10
  br i1 %11, label %.lr.ph, label %._crit_edge, !llvm.loop !108
}